(dp1
V2016-07-11
p2
S'papir'
p3
sV2016-08-12
p4
S'gul_sekk'
p5
sV2016-07-15
p6
g5
sV2016-08-15
p7
S'rest'
p8
sV2016-07-18
p9
g8
sV2016-05-13
p10
g3
sV2016-09-12
p11
g8
sV2016-12-19
p12
g8
sV2016-09-23
p13
g5
sV2016-04-08
p14
g5
sV2016-04-25
p15
g8
sV2016-12-16
p16
g5
sV2016-04-22
p17
g5
sV2016-08-01
p18
g8
sV2016-06-20
p19
g8
sV2016-06-06
p20
g8
sV2016-06-03
p21
g5
sV2016-11-21
p22
g8
sV2016-03-26
p23
g5
sV2016-03-29
p24
g8
sV2016-11-29
p25
g3
sV2016-11-02
p26
g3
sV2016-11-05
p27
g5
sV2016-10-10
p28
g8
sV2016-11-07
p29
g8
sV2016-05-09
p30
g8
sV2016-07-01
p31
g5
sV2016-08-29
p32
g8
sV2016-07-04
p33
g8
sV2016-08-26
p34
g5
sV2016-07-29
p35
g5
sV2016-05-07
p36
g5
sV2016-05-23
p37
g8
sV2016-05-21
p38
g5
sV2016-09-05
p39
g3
sV2016-08-08
p40
g3
sV2016-09-26
p41
g8
sV2016-04-11
p42
g8
sV2016-04-12
p43
g3
sV2016-12-05
p44
g8
sV2016-12-02
p45
g5
sV2016-06-17
p46
g5
sV2016-12-29
p47
g3
sV2016-06-13
p48
g3
sV2016-10-21
p49
g5
sV2016-11-18
p50
g5
sV2016-10-24
p51
g8
sV2016-10-08
p52
g5
sV2016-10-04
p53
g3
sV2016-09-09
p54
g5
s.